target datalayout = "e-m:e-p270:32:32-p271:32:32-p272:64:64-i64:64-i128:128-f80:128-n8:16:32:64-S128"
target triple = "x86_64-pc-linux-gnu"

%struct.uv_udp_s = type { ptr, ptr, i32, ptr, %struct.uv__queue, %union.anon, ptr, i32, i64, i64, ptr, ptr, %struct.uv__io_s, %struct.uv__queue, %struct.uv__queue }
%union.anon = type { [4 x ptr] }
%struct.uv__io_s = type { ptr, %struct.uv__queue, %struct.uv__queue, i32, i32, i32 }
%struct.uv__queue = type { ptr, ptr }
%union.__CONST_SOCKADDR_ARG = type { ptr }
%struct.sockaddr = type { i16, [14 x i8] }

; Function Attrs: nounwind uwtable
define internal i32 @uv__sock_reuseaddr(i32 noundef %0) #0 {
  %2 = alloca i32, align 4
  %3 = alloca i32, align 4
  %4 = alloca i32, align 4
  %5 = alloca i32, align 4
  store i32 %0, ptr %3, align 4
  call void @llvm.lifetime.start.p0(i64 4, ptr %4) #10
  store i32 1, ptr %4, align 4
  %6 = load i32, ptr %3, align 4
  %7 = call i32 @setsockopt(i32 noundef %6, i32 noundef 1, i32 noundef 2, ptr noundef %4, i32 noundef 4) #10
  %8 = icmp ne i32 %7, 0
  br i1 %8, label %9, label %13

9:                                                ; preds = %1
  %10 = call ptr @__errno_location() #11
  %11 = load i32, ptr %10, align 4
  %12 = sub nsw i32 0, %11
  store i32 %12, ptr %2, align 4
  store i32 1, ptr %5, align 4
  br label %14

13:                                               ; preds = %1
  store i32 0, ptr %2, align 4
  store i32 1, ptr %5, align 4
  br label %14

14:                                               ; preds = %13, %9
  call void @llvm.lifetime.end.p0(i64 4, ptr %4) #10
  %15 = load i32, ptr %2, align 4
  ret i32 %15
}

; Function Attrs: nounwind uwtable
define internal i32 @uv__set_recverr(i32 noundef %0, i16 noundef zeroext %1) #0 {
  %3 = alloca i32, align 4
  %4 = alloca i32, align 4
  %5 = alloca i16, align 2
  %6 = alloca i32, align 4
  %7 = alloca i32, align 4
  store i32 %0, ptr %4, align 4
  store i16 %1, ptr %5, align 2
  call void @llvm.lifetime.start.p0(i64 4, ptr %6) #10
  store i32 1, ptr %6, align 4
  %8 = load i16, ptr %5, align 2
  %9 = zext i16 %8 to i32
  %10 = icmp eq i32 %9, 2
  br i1 %10, label %11, label %20

11:                                               ; preds = %2
  %12 = load i32, ptr %4, align 4
  %13 = call i32 @setsockopt(i32 noundef %12, i32 noundef 0, i32 noundef 11, ptr noundef %6, i32 noundef 4) #10
  %14 = icmp ne i32 %13, 0
  br i1 %14, label %15, label %19

15:                                               ; preds = %11
  %16 = call ptr @__errno_location() #11
  %17 = load i32, ptr %16, align 4
  %18 = sub nsw i32 0, %17
  store i32 %18, ptr %3, align 4
  store i32 1, ptr %7, align 4
  br label %35

19:                                               ; preds = %11
  br label %34

20:                                               ; preds = %2
  %21 = load i16, ptr %5, align 2
  %22 = zext i16 %21 to i32
  %23 = icmp eq i32 %22, 10
  br i1 %23, label %24, label %33

24:                                               ; preds = %20
  %25 = load i32, ptr %4, align 4
  %26 = call i32 @setsockopt(i32 noundef %25, i32 noundef 41, i32 noundef 25, ptr noundef %6, i32 noundef 4) #10
  %27 = icmp ne i32 %26, 0
  br i1 %27, label %28, label %32

28:                                               ; preds = %24
  %29 = call ptr @__errno_location() #11
  %30 = load i32, ptr %29, align 4
  %31 = sub nsw i32 0, %30
  store i32 %31, ptr %3, align 4
  store i32 1, ptr %7, align 4
  br label %35

32:                                               ; preds = %24
  br label %33

33:                                               ; preds = %32, %20
  br label %34

34:                                               ; preds = %33, %19
  store i32 0, ptr %3, align 4
  store i32 1, ptr %7, align 4
  br label %35

35:                                               ; preds = %34, %28, %15
  call void @llvm.lifetime.end.p0(i64 4, ptr %6) #10
  %36 = load i32, ptr %3, align 4
  ret i32 %36
}

; Function Attrs: nounwind uwtable
define hidden i32 @uv__udp_bind(ptr noundef %0, ptr noundef %1, i32 noundef %2, i32 noundef %3) #0 {
  %5 = alloca i32, align 4
  %6 = alloca ptr, align 8
  %7 = alloca ptr, align 8
  %8 = alloca i32, align 4
  %9 = alloca i32, align 4
  %10 = alloca i32, align 4
  %11 = alloca i32, align 4
  %12 = alloca i32, align 4
  %13 = alloca i32, align 4
  %14 = alloca %union.__CONST_SOCKADDR_ARG, align 8
  store ptr %0, ptr %6, align 8
  store ptr %1, ptr %7, align 8
  store i32 %2, ptr %8, align 4
  store i32 %3, ptr %9, align 4
  call void @llvm.lifetime.start.p0(i64 4, ptr %10) #10
  call void @llvm.lifetime.start.p0(i64 4, ptr %11) #10
  call void @llvm.lifetime.start.p0(i64 4, ptr %12) #10
  %15 = load i32, ptr %9, align 4
  %16 = and i32 %15, -102
  %17 = icmp ne i32 %16, 0
  br i1 %17, label %18, label %19

18:                                               ; preds = %4
  store i32 -22, ptr %5, align 4
  store i32 1, ptr %13, align 4
  br label %140

19:                                               ; preds = %4
  %20 = load i32, ptr %9, align 4
  %21 = and i32 %20, 1
  %22 = icmp ne i32 %21, 0
  br i1 %22, label %23, label %30

23:                                               ; preds = %19
  %24 = load ptr, ptr %7, align 8
  %25 = getelementptr inbounds nuw %struct.sockaddr, ptr %24, i32 0, i32 0
  %26 = load i16, ptr %25, align 2
  %27 = zext i16 %26 to i32
  %28 = icmp ne i32 %27, 10
  br i1 %28, label %29, label %30

29:                                               ; preds = %23
  store i32 -22, ptr %5, align 4
  store i32 1, ptr %13, align 4
  br label %140

30:                                               ; preds = %23, %19
  %31 = load ptr, ptr %6, align 8
  %32 = getelementptr inbounds nuw %struct.uv_udp_s, ptr %31, i32 0, i32 12
  %33 = getelementptr inbounds nuw %struct.uv__io_s, ptr %32, i32 0, i32 5
  %34 = load i32, ptr %33, align 8
  store i32 %34, ptr %12, align 4
  %35 = load i32, ptr %12, align 4
  %36 = icmp eq i32 %35, -1
  br i1 %36, label %37, label %53

37:                                               ; preds = %30
  %38 = load ptr, ptr %7, align 8
  %39 = getelementptr inbounds nuw %struct.sockaddr, ptr %38, i32 0, i32 0
  %40 = load i16, ptr %39, align 2
  %41 = zext i16 %40 to i32
  %42 = call i32 @uv__socket(i32 noundef %41, i32 noundef 2, i32 noundef 0)
  store i32 %42, ptr %10, align 4
  %43 = load i32, ptr %10, align 4
  %44 = icmp slt i32 %43, 0
  br i1 %44, label %45, label %47

45:                                               ; preds = %37
  %46 = load i32, ptr %10, align 4
  store i32 %46, ptr %5, align 4
  store i32 1, ptr %13, align 4
  br label %140

47:                                               ; preds = %37
  %48 = load i32, ptr %10, align 4
  store i32 %48, ptr %12, align 4
  %49 = load i32, ptr %12, align 4
  %50 = load ptr, ptr %6, align 8
  %51 = getelementptr inbounds nuw %struct.uv_udp_s, ptr %50, i32 0, i32 12
  %52 = getelementptr inbounds nuw %struct.uv__io_s, ptr %51, i32 0, i32 5
  store i32 %49, ptr %52, align 8
  br label %53

53:                                               ; preds = %47, %30
  %54 = load i32, ptr %9, align 4
  %55 = and i32 %54, 32
  %56 = icmp ne i32 %55, 0
  br i1 %56, label %57, label %68

57:                                               ; preds = %53
  %58 = load i32, ptr %12, align 4
  %59 = load ptr, ptr %7, align 8
  %60 = getelementptr inbounds nuw %struct.sockaddr, ptr %59, i32 0, i32 0
  %61 = load i16, ptr %60, align 2
  %62 = call i32 @uv__set_recverr(i32 noundef %58, i16 noundef zeroext %61)
  store i32 %62, ptr %10, align 4
  %63 = load i32, ptr %10, align 4
  %64 = icmp ne i32 %63, 0
  br i1 %64, label %65, label %67

65:                                               ; preds = %57
  %66 = load i32, ptr %10, align 4
  store i32 %66, ptr %5, align 4
  store i32 1, ptr %13, align 4
  br label %140

67:                                               ; preds = %57
  br label %68

68:                                               ; preds = %67, %53
  %69 = load i32, ptr %9, align 4
  %70 = and i32 %69, 4
  %71 = icmp ne i32 %70, 0
  br i1 %71, label %72, label %80

72:                                               ; preds = %68
  %73 = load i32, ptr %12, align 4
  %74 = call i32 @uv__sock_reuseaddr(i32 noundef %73)
  store i32 %74, ptr %10, align 4
  %75 = load i32, ptr %10, align 4
  %76 = icmp ne i32 %75, 0
  br i1 %76, label %77, label %79

77:                                               ; preds = %72
  %78 = load i32, ptr %10, align 4
  store i32 %78, ptr %5, align 4
  store i32 1, ptr %13, align 4
  br label %140

79:                                               ; preds = %72
  br label %80

80:                                               ; preds = %79, %68
  %81 = load i32, ptr %9, align 4
  %82 = and i32 %81, 64
  %83 = icmp ne i32 %82, 0
  br i1 %83, label %84, label %92

84:                                               ; preds = %80
  %85 = load i32, ptr %12, align 4
  %86 = call i32 @uv__sock_reuseport(i32 noundef %85)
  store i32 %86, ptr %10, align 4
  %87 = load i32, ptr %10, align 4
  %88 = icmp ne i32 %87, 0
  br i1 %88, label %89, label %91

89:                                               ; preds = %84
  %90 = load i32, ptr %10, align 4
  store i32 %90, ptr %5, align 4
  store i32 1, ptr %13, align 4
  br label %140

91:                                               ; preds = %84
  br label %92

92:                                               ; preds = %91, %80
  %93 = load i32, ptr %9, align 4
  %94 = and i32 %93, 1
  %95 = icmp ne i32 %94, 0
  br i1 %95, label %96, label %106

96:                                               ; preds = %92
  store i32 1, ptr %11, align 4
  %97 = load i32, ptr %12, align 4
  %98 = call i32 @setsockopt(i32 noundef %97, i32 noundef 41, i32 noundef 26, ptr noundef %11, i32 noundef 4) #10
  %99 = icmp eq i32 %98, -1
  br i1 %99, label %100, label %105

100:                                              ; preds = %96
  %101 = call ptr @__errno_location() #11
  %102 = load i32, ptr %101, align 4
  %103 = sub nsw i32 0, %102
  store i32 %103, ptr %10, align 4
  %104 = load i32, ptr %10, align 4
  store i32 %104, ptr %5, align 4
  store i32 1, ptr %13, align 4
  br label %140

105:                                              ; preds = %96
  br label %106

106:                                              ; preds = %105, %92
  %107 = load i32, ptr %12, align 4
  %108 = load ptr, ptr %7, align 8
  store ptr %108, ptr %14, align 8
  %109 = load i32, ptr %8, align 4
  %110 = getelementptr inbounds nuw %union.__CONST_SOCKADDR_ARG, ptr %14, i32 0, i32 0
  %111 = load ptr, ptr %110, align 8
  %112 = call i32 @bind(i32 noundef %107, ptr %111, i32 noundef %109) #10
  %113 = icmp ne i32 %112, 0
  br i1 %113, label %114, label %124

114:                                              ; preds = %106
  %115 = call ptr @__errno_location() #11
  %116 = load i32, ptr %115, align 4
  %117 = sub nsw i32 0, %116
  store i32 %117, ptr %10, align 4
  %118 = call ptr @__errno_location() #11
  %119 = load i32, ptr %118, align 4
  %120 = icmp eq i32 %119, 97
  br i1 %120, label %121, label %122

121:                                              ; preds = %114
  store i32 -22, ptr %10, align 4
  br label %122

122:                                              ; preds = %121, %114
  %123 = load i32, ptr %10, align 4
  store i32 %123, ptr %5, align 4
  store i32 1, ptr %13, align 4
  br label %140

124:                                              ; preds = %106
  %125 = load ptr, ptr %7, align 8
  %126 = getelementptr inbounds nuw %struct.sockaddr, ptr %125, i32 0, i32 0
  %127 = load i16, ptr %126, align 2
  %128 = zext i16 %127 to i32
  %129 = icmp eq i32 %128, 10
  br i1 %129, label %130, label %135

130:                                              ; preds = %124
  %131 = load ptr, ptr %6, align 8
  %132 = getelementptr inbounds nuw %struct.uv_udp_s, ptr %131, i32 0, i32 7
  %133 = load i32, ptr %132, align 8
  %134 = or i32 %133, 4194304
  store i32 %134, ptr %132, align 8
  br label %135

135:                                              ; preds = %130, %124
  %136 = load ptr, ptr %6, align 8
  %137 = getelementptr inbounds nuw %struct.uv_udp_s, ptr %136, i32 0, i32 7
  %138 = load i32, ptr %137, align 8
  %139 = or i32 %138, 8192
  store i32 %139, ptr %137, align 8
  store i32 0, ptr %5, align 4
  store i32 1, ptr %13, align 4
  br label %140

140:                                              ; preds = %135, %122, %100, %89, %77, %65, %45, %29, %18
  call void @llvm.lifetime.end.p0(i64 4, ptr %12) #10
  call void @llvm.lifetime.end.p0(i64 4, ptr %11) #10
  call void @llvm.lifetime.end.p0(i64 4, ptr %10) #10
  %141 = load i32, ptr %5, align 4
  ret i32 %141
}