; Function Attrs: nounwind uwtable
define hidden i32 @uv__udp_bind(ptr noundef captures(none) %0, ptr noundef %1, i32 noundef %2, i32 noundef %3) local_unnamed_addr #0 {
  %5 = alloca i32, align 4
  %6 = alloca i32, align 4
  %7 = alloca i32, align 4
  call void @llvm.lifetime.start.p0(i64 4, ptr nonnull %7) #10
  %8 = and i32 %3, -102
  %.not = icmp eq i32 %8, 0
  br i1 %.not, label %9, label %67

9:                                                ; preds = %4
  %10 = and i32 %3, 1
  %.not40 = icmp eq i32 %10, 0
  br i1 %.not40, label %13, label %11

11:                                               ; preds = %9
  %12 = load i16, ptr %1, align 2
  %.not41 = icmp eq i16 %12, 10
  br i1 %.not41, label %13, label %67

13:                                               ; preds = %11, %9
  %14 = getelementptr inbounds nuw i8, ptr %0, i64 176
  %15 = load i32, ptr %14, align 8
  %16 = icmp eq i32 %15, -1
  br i1 %16, label %17, label %23

17:                                               ; preds = %13
  %18 = load i16, ptr %1, align 2
  %19 = zext i16 %18 to i32
  %20 = tail call i32 @uv__socket(i32 noundef %19, i32 noundef 2, i32 noundef 0) #10
  %21 = icmp slt i32 %20, 0
  br i1 %21, label %67, label %22

22:                                               ; preds = %17
  store i32 %20, ptr %14, align 8
  br label %23

23:                                               ; preds = %22, %13
  %.034 = phi i32 [ %20, %22 ], [ %15, %13 ]
  %24 = and i32 %3, 32
  %.not42 = icmp eq i32 %24, 0
  br i1 %.not42, label %34, label %25

25:                                               ; preds = %23
  %26 = load i16, ptr %1, align 2
  call void @llvm.lifetime.start.p0(i64 4, ptr nonnull %6) #10
  store i32 1, ptr %6, align 4
  switch i16 %26, label %uv__set_recverr.exit.thread [
    i16 2, label %27
    i16 10, label %29
  ]

27:                                               ; preds = %25
  %28 = call i32 @setsockopt(i32 noundef range(i32 0, -1) %.034, i32 noundef 0, i32 noundef 11, ptr noundef nonnull %6, i32 noundef 4) #10
  %.not6.i = icmp eq i32 %28, 0
  br i1 %.not6.i, label %uv__set_recverr.exit.thread, label %uv__set_recverr.exit

29:                                               ; preds = %25
  %30 = call i32 @setsockopt(i32 noundef range(i32 0, -1) %.034, i32 noundef 41, i32 noundef 25, ptr noundef nonnull %6, i32 noundef 4) #10
  %.not.i = icmp eq i32 %30, 0
  br i1 %.not.i, label %uv__set_recverr.exit.thread, label %uv__set_recverr.exit

uv__set_recverr.exit.thread:                      ; preds = %25, %29, %27
  call void @llvm.lifetime.end.p0(i64 4, ptr nonnull %6) #10
  br label %34

uv__set_recverr.exit:                             ; preds = %27, %29
  %31 = tail call ptr @__errno_location() #11
  %32 = load i32, ptr %31, align 4
  %33 = sub nsw i32 0, %32
  call void @llvm.lifetime.end.p0(i64 4, ptr nonnull %6) #10
  %.not43 = icmp eq i32 %32, 0
  br i1 %.not43, label %34, label %67

34:                                               ; preds = %uv__set_recverr.exit.thread, %uv__set_recverr.exit, %23
  %35 = and i32 %3, 4
  %.not44 = icmp eq i32 %35, 0
  br i1 %.not44, label %41, label %36

36:                                               ; preds = %34
  call void @llvm.lifetime.start.p0(i64 4, ptr nonnull %5) #10
  store i32 1, ptr %5, align 4
  %37 = call i32 @setsockopt(i32 noundef %.034, i32 noundef 1, i32 noundef 2, ptr noundef nonnull %5, i32 noundef 4) #10
  %.not.i49 = icmp eq i32 %37, 0
  br i1 %.not.i49, label %uv__sock_reuseaddr.exit.thread, label %uv__sock_reuseaddr.exit

uv__sock_reuseaddr.exit.thread:                   ; preds = %36
  call void @llvm.lifetime.end.p0(i64 4, ptr nonnull %5) #10
  br label %41

uv__sock_reuseaddr.exit:                          ; preds = %36
  %38 = tail call ptr @__errno_location() #11
  %39 = load i32, ptr %38, align 4
  %40 = sub nsw i32 0, %39
  call void @llvm.lifetime.end.p0(i64 4, ptr nonnull %5) #10
  %.not45 = icmp eq i32 %39, 0
  br i1 %.not45, label %41, label %67

41:                                               ; preds = %uv__sock_reuseaddr.exit.thread, %uv__sock_reuseaddr.exit, %34
  %.not46 = icmp samesign ult i32 %3, 64
  br i1 %.not46, label %44, label %42

42:                                               ; preds = %41
  %43 = call i32 @uv__sock_reuseport(i32 noundef %.034) #10
  %.not47 = icmp eq i32 %43, 0
  br i1 %.not47, label %44, label %67

44:                                               ; preds = %42, %41
  br i1 %.not40, label %52, label %45

45:                                               ; preds = %44
  store i32 1, ptr %7, align 4
  %46 = call i32 @setsockopt(i32 noundef %.034, i32 noundef 41, i32 noundef 26, ptr noundef nonnull %7, i32 noundef 4) #10
  %47 = icmp eq i32 %46, -1
  br i1 %47, label %48, label %52

48:                                               ; preds = %45
  %49 = tail call ptr @__errno_location() #11
  %50 = load i32, ptr %49, align 4
  %51 = sub nsw i32 0, %50
  br label %67

52:                                               ; preds = %45, %44
  %53 = call i32 @bind(i32 noundef %.034, ptr %1, i32 noundef %2) #10
  %.not48 = icmp eq i32 %53, 0
  br i1 %.not48, label %._crit_edge, label %54

54:                                               ; preds = %52
  %55 = tail call ptr @__errno_location() #11
  %56 = load i32, ptr %55, align 4
  %57 = sub nsw i32 0, %56
  %58 = icmp eq i32 %56, 97
  %spec.store.select = select i1 %58, i32 -22, i32 %57
  br label %67

._crit_edge:                                      ; preds = %52
  %59 = load i16, ptr %1, align 2
  %60 = icmp eq i16 %59, 10
  %61 = getelementptr inbounds nuw i8, ptr %0, i64 88
  %62 = load i32, ptr %61, align 8
  %63 = or i32 %62, 4194304
  %64 = select i1 %60, i32 %63, i32 %62
  %65 = getelementptr inbounds nuw i8, ptr %0, i64 88
  %66 = or i32 %64, 8192
  store i32 %66, ptr %65, align 8
  br label %67

67:                                               ; preds = %42, %uv__sock_reuseaddr.exit, %uv__set_recverr.exit, %17, %11, %4, %._crit_edge, %54, %48
  %.0 = phi i32 [ %51, %48 ], [ %spec.store.select, %54 ], [ 0, %._crit_edge ], [ -22, %4 ], [ -22, %11 ], [ %20, %17 ], [ %33, %uv__set_recverr.exit ], [ %40, %uv__sock_reuseaddr.exit ], [ %43, %42 ]
  call void @llvm.lifetime.end.p0(i64 4, ptr nonnull %7) #10
  ret i32 %.0
}